(dp1
S'output'
p2
S"<type 'exceptions.NameError'> global name 'SQLform' is not defined"
p3
sS'layer'
p4
S'/home/respanic/dev/web2py/applications/biblioteca/controllers/default.py'
p5
sS'code'
p6
S'# -*- coding: utf-8 -*-\n# this file is released under public domain and you can use without limitations\n\n# -------------------------------------------------------------------------\n# This is a sample controller\n# - index is the default action of any application\n# - user is required for authentication and authorization\n# - download is for downloading files uploaded in the db (does streaming)\n# -------------------------------------------------------------------------\n\n@auth.requires_login()\ndef index():\n    response.flash = T("Bem-vindo(a) a biblioteca!")\n    return locals()\n\n@auth.requires_membership(\'admin\')\ndef cadastrar_livro():\n    response.flash = T("Cadastrar livros")\n    form = SQLform(db.livros)\n    \n    return locals()\n\ndef user():\n    """\n    exposes:\n    http://..../[app]/default/user/login\n    http://..../[app]/default/user/logout\n    http://..../[app]/default/user/register\n    http://..../[app]/default/user/profile\n    http://..../[app]/default/user/retrieve_password\n    http://..../[app]/default/user/change_password\n    http://..../[app]/default/user/bulk_register\n    use @auth.requires_login()\n        @auth.requires_membership(\'group name\')\n        @auth.requires_permission(\'read\',\'table name\',record_id)\n    to decorate functions that need access control\n    also notice there is http://..../[app]/appadmin/manage/auth to allow administrator to manage users\n    """\n    return dict(form=auth())\n\n\n@cache.action()\ndef download():\n    """\n    allows downloading of uploaded files\n    http://..../[app]/default/download/[filename]\n    """\n    return response.download(request, db)\n\n\ndef call():\n    """\n    exposes services. for example:\n    http://..../[app]/default/call/jsonrpc\n    decorate with @services.jsonrpc the functions to expose\n    supports xml, json, xmlrpc, jsonrpc, amfrpc, rss, csv\n    """\n    return service()\n\n\n\nresponse._vars=response._caller(cadastrar_livro)\n'
p7
sS'snapshot'
p8
(dp9
sS'traceback'
p10
S'Traceback (most recent call last):\n  File "/home/respanic/dev/web2py/gluon/restricted.py", line 227, in restricted\n    exec ccode in environment\n  File "/home/respanic/dev/web2py/applications/biblioteca/controllers/default.py", line 62, in <module>\n  File "/home/respanic/dev/web2py/gluon/globals.py", line 417, in <lambda>\n    self._caller = lambda f: f()\n  File "/home/respanic/dev/web2py/gluon/tools.py", line 4241, in f\n    return action(*a, **b)\n  File "/home/respanic/dev/web2py/applications/biblioteca/controllers/default.py", line 19, in cadastrar_livro\n    form = SQLform(db.livros)\nNameError: global name \'SQLform\' is not defined\n'
p11
s.